; Function Attrs: mustprogress uwtable
define hidden void @_ZN6Assimp15ObjFileImporterC2Ev(ptr noundef nonnull align 8 dereferenceable(136) %this) unnamed_addr #2 align 2 personality ptr @__gxx_personality_v0 {
entry:
  %ref.tmp = alloca %"class.Assimp::DefaultIOSystem", align 8
  %ref.tmp2 = alloca %"class.std::allocator.0", align 1
  tail call void @_ZN6Assimp12BaseImporterC2Ev(ptr noundef nonnull align 8 dereferenceable(72) %this) #18
  store ptr getelementptr inbounds ({ [8 x ptr] }, ptr @_ZTVN6Assimp15ObjFileImporterE, i64 0, i32 0, i64 2), ptr %this, align 8
  %m_Buffer = getelementptr inbounds i8, ptr %this, i64 72
  tail call void @llvm.memset.p0.i64(ptr noundef nonnull align 8 dereferenceable(24) %m_Buffer, i8 0, i64 24, i1 false)
  tail call void @_ZNSaIcEC2Ev(ptr noundef nonnull align 1 dereferenceable(1) %m_Buffer) #18
  tail call void @llvm.memset.p0.i64(ptr noundef nonnull align 8 dereferenceable(32) %m_Buffer, i8 0, i64 32, i1 false)
  %m_pathStack.i.i = getelementptr inbounds i8, ptr %ref.tmp, i64 8
  %0 = getelementptr inbounds i8, ptr %ref.tmp, i64 8
  call void @llvm.memset.p0.i64(ptr noundef nonnull align 8 dereferenceable(24) %0, i8 0, i64 24, i1 false)
  store ptr getelementptr inbounds ({ [16 x ptr] }, ptr @_ZTVN6Assimp15DefaultIOSystemE, i64 0, i32 0, i64 2), ptr %ref.tmp, align 8
  %call = invoke noundef signext i8 @_ZNK6Assimp15DefaultIOSystem14getOsSeparatorEv(ptr noundef nonnull align 8 dereferenceable(32) %ref.tmp)
          to label %invoke.cont unwind label %lpad

invoke.cont:                                      ; preds = %entry
  %m_strAbsPath = getelementptr inbounds i8, ptr %this, i64 104
  call void @_ZNSaIcEC1Ev(ptr noundef nonnull align 1 dereferenceable(1) %ref.tmp2) #18
  %call.i2 = invoke noundef ptr @_ZNSt7__cxx1112basic_stringIcSt11char_traitsIcESaIcEE13_M_local_dataEv(ptr noundef nonnull align 8 dereferenceable(32) %m_strAbsPath)
          to label %call.i.noexc unwind label %lpad3

call.i.noexc:                                     ; preds = %invoke.cont
  invoke void @_ZNSt7__cxx1112basic_stringIcSt11char_traitsIcESaIcEE12_Alloc_hiderC1EPcRKS3_(ptr noundef nonnull align 8 dereferenceable(8) %m_strAbsPath, ptr noundef %call.i2, ptr noundef nonnull align 1 dereferenceable(1) %ref.tmp2)
          to label %.noexc unwind label %lpad3

.noexc:                                           ; preds = %call.i.noexc
  invoke void @_ZNSt7__cxx1112basic_stringIcSt11char_traitsIcESaIcEE12_M_constructEmc(ptr noundef nonnull align 8 dereferenceable(32) %m_strAbsPath, i64 noundef 1, i8 noundef signext %call)
          to label %invoke.cont4 unwind label %lpad.i

lpad.i:                                           ; preds = %.noexc
  %1 = landingpad { ptr, i32 }
          cleanup
  call void @_ZNSaIcED2Ev(ptr noundef nonnull align 1 dereferenceable(1) %m_strAbsPath) #18
  br label %lpad3.body

invoke.cont4:                                     ; preds = %.noexc
  call void @_ZNSaIcED1Ev(ptr noundef nonnull align 1 dereferenceable(1) %ref.tmp2) #18
  store ptr getelementptr inbounds ({ [16 x ptr] }, ptr @_ZTVN6Assimp8IOSystemE, i64 0, i32 0, i64 2), ptr %ref.tmp, align 8
  %2 = load ptr, ptr %m_pathStack.i.i, align 8
  %_M_finish.i.i.i = getelementptr inbounds i8, ptr %ref.tmp, i64 16
  %3 = load ptr, ptr %_M_finish.i.i.i, align 8
  %cmp.not3.i.i.i.i.i.i = icmp eq ptr %2, %3
  br i1 %cmp.not3.i.i.i.i.i.i, label %invoke.cont.i.i.i, label %for.body.i.i.i.i.i.i

for.body.i.i.i.i.i.i:                             ; preds = %invoke.cont4, %for.body.i.i.i.i.i.i
  %__first.addr.04.i.i.i.i.i.i = phi ptr [ %incdec.ptr.i.i.i.i.i.i, %for.body.i.i.i.i.i.i ], [ %2, %invoke.cont4 ]
  call void @_ZNSt7__cxx1112basic_stringIcSt11char_traitsIcESaIcEED1Ev(ptr noundef nonnull align 8 dereferenceable(32) %__first.addr.04.i.i.i.i.i.i) #18
  %incdec.ptr.i.i.i.i.i.i = getelementptr inbounds i8, ptr %__first.addr.04.i.i.i.i.i.i, i64 32
  %cmp.not.i.i.i.i.i.i = icmp eq ptr %incdec.ptr.i.i.i.i.i.i, %3
  br i1 %cmp.not.i.i.i.i.i.i, label %invoke.contthread-pre-split.i.i.i, label %for.body.i.i.i.i.i.i, !llvm.loop !4

invoke.contthread-pre-split.i.i.i:                ; preds = %for.body.i.i.i.i.i.i
  %.pr.i.i.i = load ptr, ptr %m_pathStack.i.i, align 8
  br label %invoke.cont.i.i.i

invoke.cont.i.i.i:                                ; preds = %invoke.contthread-pre-split.i.i.i, %invoke.cont4
  %4 = phi ptr [ %.pr.i.i.i, %invoke.contthread-pre-split.i.i.i ], [ %2, %invoke.cont4 ]
  %tobool.not.i.i.i.i.i = icmp eq ptr %4, null
  br i1 %tobool.not.i.i.i.i.i, label %_ZN6Assimp15DefaultIOSystemD2Ev.exit, label %if.then.i.i.i.i.i

if.then.i.i.i.i.i:                                ; preds = %invoke.cont.i.i.i
  call void @_ZdlPv(ptr noundef nonnull %4) #19
  br label %_ZN6Assimp15DefaultIOSystemD2Ev.exit

_ZN6Assimp15DefaultIOSystemD2Ev.exit:             ; preds = %invoke.cont.i.i.i, %if.then.i.i.i.i.i
  ret void

lpad:                                             ; preds = %entry
  %5 = landingpad { ptr, i32 }
          cleanup
  br label %ehcleanup

lpad3:                                            ; preds = %call.i.noexc, %invoke.cont
  %6 = landingpad { ptr, i32 }
          cleanup
  br label %lpad3.body

lpad3.body:                                       ; preds = %lpad.i, %lpad3
  %eh.lpad-body = phi { ptr, i32 } [ %6, %lpad3 ], [ %1, %lpad.i ]
  call void @_ZNSaIcED1Ev(ptr noundef nonnull align 1 dereferenceable(1) %ref.tmp2) #18
  br label %ehcleanup

ehcleanup:                                        ; preds = %lpad3.body, %lpad
  %.pn = phi { ptr, i32 } [ %eh.lpad-body, %lpad3.body ], [ %5, %lpad ]
  call void @_ZN6Assimp15DefaultIOSystemD2Ev(ptr noundef nonnull align 8 dereferenceable(32) %ref.tmp) #18
  call void @_ZNSt6vectorIcSaIcEED2Ev(ptr noundef nonnull align 8 dereferenceable(24) %m_Buffer) #18
  call void @_ZN6Assimp12BaseImporterD2Ev(ptr noundef nonnull align 8 dereferenceable(72) %this) #18
  resume { ptr, i32 } %.pn
}